target datalayout = "e-m:e-p270:32:32-p271:32:32-p272:64:64-i64:64-i128:128-f80:128-n8:16:32:64-S128"
target triple = "x86_64-pc-linux-gnu"

%struct._GdkRGBA = type { double, double, double, double }
%struct.darktable_t = type { %struct.dt_codepath_t, i32, i32, ptr, ptr, ptr, ptr, ptr, ptr, ptr, ptr, ptr, ptr, ptr, ptr, ptr, ptr, ptr, ptr, ptr, ptr, ptr, ptr, ptr, ptr, ptr, ptr, ptr, ptr, ptr, [64 x %struct.dt_pthread_mutex_t], %struct.dt_pthread_mutex_t, %struct.dt_pthread_mutex_t, %struct.dt_pthread_mutex_t, %struct.dt_pthread_mutex_t, %struct.dt_pthread_mutex_t, ptr, ptr, ptr, ptr, ptr, ptr, ptr, ptr, ptr, ptr, ptr, ptr, ptr, %struct.dt_lua_state_t, ptr, double, ptr, i32, [47 x i32], i32, i32, ptr, ptr, %struct.dt_sys_resources_t, %struct.dt_backthumb_t, %struct.dt_gimp_t }
%struct.dt_codepath_t = type { i8, [3 x i8] }
%struct.dt_pthread_mutex_t = type { %union.pthread_mutex_t }
%union.pthread_mutex_t = type { %struct.__pthread_mutex_s }
%struct.__pthread_mutex_s = type { i32, i32, i32, i32, i32, i16, i16, %struct.__pthread_internal_list }
%struct.__pthread_internal_list = type { ptr, ptr }
%struct.dt_lua_state_t = type { i32 }
%struct.dt_sys_resources_t = type { i64, i64, ptr, ptr, i32 }
%struct.dt_backthumb_t = type { double, double, i32, i32, i32, i32 }
%struct.dt_gimp_t = type { i32, ptr, ptr, i32, i32 }
%struct.dt_iop_module_t = type { i32, ptr, ptr, ptr, ptr, ptr, ptr, ptr, ptr, ptr, ptr, ptr, ptr, ptr, ptr, ptr, ptr, ptr, ptr, ptr, ptr, ptr, ptr, ptr, ptr, ptr, ptr, ptr, ptr, ptr, ptr, ptr, ptr, ptr, ptr, ptr, ptr, ptr, ptr, ptr, ptr, ptr, ptr, ptr, ptr, ptr, ptr, ptr, ptr, ptr, ptr, ptr, ptr, ptr, ptr, ptr, ptr, [20 x i8], i32, i32, i32, i32, i32, i32, i32, [8 x i8], [4 x float], [4 x float], [4 x float], [4 x float], [4 x float], [4 x float], ptr, %struct.dt_dev_histogram_stats_t, [4 x i32], i32, i32, ptr, i32, i32, ptr, ptr, i32, ptr, %struct.dt_pthread_mutex_t, ptr, ptr, ptr, ptr, %struct.anon, ptr, ptr, ptr, ptr, ptr, ptr, ptr, i32, ptr, ptr, ptr, ptr, ptr, ptr, ptr, i32, ptr, i32, [128 x i8], i32, ptr, ptr, i32, [12 x i8] }
%struct.dt_dev_histogram_stats_t = type { i32, i64, i32, i32 }
%struct.anon = type { %struct.anon.0, %struct.anon.1 }
%struct.anon.0 = type { ptr, ptr }
%struct.anon.1 = type { ptr, i32 }
%struct.dt_iop_gui_blend_data_t = type { i32, i32, i32, i32, i32, i32, i32, ptr, ptr, ptr, ptr, ptr, ptr, ptr, ptr, ptr, ptr, ptr, ptr, ptr, [2 x %struct.dt_iop_gui_blendif_filter_t], ptr, ptr, ptr, ptr, ptr, ptr, ptr, ptr, ptr, ptr, ptr, ptr, i32, i32, ptr, i32, [8 x [2 x i32]], i32, i32, ptr, i32, ptr, ptr, ptr, [5 x ptr], [5 x i32], ptr, ptr, ptr, i32, ptr, ptr, i32, %struct.dt_pthread_mutex_t }
%struct.dt_iop_gui_blendif_filter_t = type { ptr, ptr, [4 x ptr], ptr, ptr, ptr }
%struct.dt_gui_gtk_t = type { ptr, %struct.dt_gui_widgets_t, %struct.dt_gui_scrollbars_t, i32, ptr, i32, [39 x %struct._GdkRGBA], i32, i32, i32, i32, i32, double, double, double, double, ptr, double, double, double, double, i32, i32, [4096 x i8], i32, i32, i32, %struct.dt_pthread_mutex_t }
%struct.dt_gui_widgets_t = type { ptr, ptr, ptr, ptr, i32, i32, i32 }
%struct.dt_gui_scrollbars_t = type { ptr, ptr, i32 }
%struct.dt_develop_blend_params_t = type { i32, i32, i32, float, float, i32, i32, i32, float, i32, float, float, float, float, i32, [2 x i32], [64 x float], [16 x float], [20 x i8], i32, i32, i32 }
%struct.dt_develop_t = type { i32, i32, i32, ptr, double, double, i32, i32, i32, i32, i32, double, i32, i32, i32, ptr, ptr, [8 x i8], %struct.dt_image_t, i32, i32, %struct.dt_pthread_mutex_t, i32, ptr, i32, ptr, i32, ptr, ptr, i32, ptr, ptr, ptr, ptr, i32, i32, ptr, ptr, ptr, ptr, i32, i32, i32, float, float, ptr, i32, %struct.anon.8, %struct.dt_dev_chroma_t, %struct.anon.11, %struct.anon.12, %struct.anon.13, %struct.anon.14, %struct.anon.15, %struct.anon.16, ptr, ptr, %struct.dt_dev_viewport_t, %struct.dt_dev_viewport_t, i32, i32, i32, ptr, [8 x i8] }
%struct.dt_image_t = type { i32, i32, float, float, float, float, float, float, float, [64 x i8], [64 x i8], [128 x i8], [64 x i8], [64 x i8], [64 x i8], [64 x i8], i64, i32, %union.dt_image_correction_data_t, [64 x i8], [64 x i8], [64 x i8], [128 x i8], i32, [256 x i8], i32, i32, i32, i32, i32, i32, i32, i32, i32, i32, float, i32, i32, i32, i32, i32, i32, i64, i64, i64, i64, i32, [12 x i8], %struct.dt_iop_buffer_dsc_t, [9 x float], ptr, i32, i32, %struct.dt_image_raw_parameters_t, %struct.dt_image_geoloc_t, %struct._color_harmony_t, i16, [4 x i16], i32, i32, float, float, [4 x float], [4 x [3 x float]], [4 x float], ptr, ptr, i32, i32, [8 x i8] }
%union.dt_image_correction_data_t = type { %struct.anon.3 }
%struct.anon.3 = type { i32, float, [11 x float], [11 x float], [11 x float], [11 x float], [11 x float] }
%struct.dt_iop_buffer_dsc_t = type { i32, i32, i32, [6 x [6 x i8]], %struct.anon.6, [12 x i8], %struct.anon.7, [4 x float], i32, [12 x i8] }
%struct.anon.6 = type { i16, i16 }
%struct.anon.7 = type { i32, [12 x i8], [4 x float] }
%struct.dt_image_raw_parameters_t = type { i32 }
%struct.dt_image_geoloc_t = type { double, double, double }
%struct._color_harmony_t = type { i32, i32, i32 }
%struct.anon.8 = type { %struct.dt_dev_proxy_exposure_t, ptr, %struct.anon.9, %struct.anon.10 }
%struct.dt_dev_proxy_exposure_t = type { ptr, ptr, ptr, ptr }
%struct.anon.9 = type { ptr, ptr, ptr, ptr, ptr, ptr, ptr, ptr, ptr }
%struct.anon.10 = type { ptr, ptr, ptr, ptr, ptr }
%struct.dt_dev_chroma_t = type { ptr, ptr, [4 x double], [4 x double], [4 x double], i32 }
%struct.anon.11 = type { ptr, ptr, ptr }
%struct.anon.12 = type { ptr, ptr, i32, i32, float, float, i32 }
%struct.anon.13 = type { ptr, ptr, i32, i32, i32, float }
%struct.anon.14 = type { ptr }
%struct.anon.15 = type { ptr, i32 }
%struct.anon.16 = type { ptr, ptr, ptr }
%struct.dt_dev_viewport_t = type { ptr, i32, i32, i32, i32, i32, double, double, double, i32, i32, i32, float, float, float, ptr }
%struct.dt_masks_form_t = type { ptr, i32, ptr, [2 x float], [128 x i8], i32, i32 }
%struct.dt_masks_form_gui_t = type { ptr, ptr, ptr, i32, float, float, float, float, float, float, float, float, i32, i32, i32, i32, i32, i32, i32, i32, i32, i32, i32, i32, i32, i32, i32, i32, i32, i32, i32, i32, i32, i32, float, float, i32, i32, i32, i32, i32, i32, ptr, ptr, i32, i32, i64 }
%struct._GdkEventButton = type { i32, ptr, i8, i32, double, double, ptr, i32, i32, ptr, double, double }

@darktable = external global %struct.darktable_t, align 8
@.str.107 = private unnamed_addr constant [1 x i8] zeroinitializer, align 1
@dt_modifier_shortcuts = external global i32, align 4

; Function Attrs: inlinehint nounwind uwtable
define internal i32 @dt_modifier_is(i32 noundef %0, i32 noundef %1) #3 {
  %3 = alloca i32, align 4
  %4 = alloca i32, align 4
  %5 = alloca i32, align 4
  store i32 %0, ptr %3, align 4, !tbaa !80
  store i32 %1, ptr %4, align 4, !tbaa !80
  call void @llvm.lifetime.start.p0(i64 4, ptr %5) #11
  %6 = call i32 @gtk_accelerator_get_default_mod_mask()
  store i32 %6, ptr %5, align 4, !tbaa !80
  %7 = load i32, ptr %3, align 4, !tbaa !80
  %8 = load i32, ptr @dt_modifier_shortcuts, align 4, !tbaa !80
  %9 = or i32 %7, %8
  %10 = load i32, ptr %5, align 4, !tbaa !80
  %11 = and i32 %9, %10
  %12 = load i32, ptr %4, align 4, !tbaa !80
  %13 = icmp eq i32 %11, %12
  %14 = zext i1 %13 to i32
  call void @llvm.lifetime.end.p0(i64 4, ptr %5) #11
  ret i32 %14
}

; Function Attrs: nounwind uwtable
define internal i32 @_blendop_masks_show_and_edit(ptr noundef %0, ptr noundef %1, ptr noundef %2) #0 {
  %4 = alloca i32, align 4
  %5 = alloca ptr, align 8
  %6 = alloca ptr, align 8
  %7 = alloca ptr, align 8
  %8 = alloca ptr, align 8
  %9 = alloca ptr, align 8
  %10 = alloca i32, align 4
  %11 = alloca i32, align 4
  %12 = alloca i32, align 4
  store ptr %0, ptr %5, align 8, !tbaa !11
  store ptr %1, ptr %6, align 8, !tbaa !172
  store ptr %2, ptr %7, align 8, !tbaa !6
  %13 = load ptr, ptr getelementptr inbounds nuw (%struct.darktable_t, ptr @darktable, i32 0, i32 14), align 8, !tbaa !39
  %14 = getelementptr inbounds nuw %struct.dt_gui_gtk_t, ptr %13, i32 0, i32 5
  %15 = load i32, ptr %14, align 8, !tbaa !72
  %16 = icmp ne i32 %15, 0
  br i1 %16, label %17, label %18

17:                                               ; preds = %3
  store i32 0, ptr %4, align 4
  br label %132

18:                                               ; preds = %3
  %19 = load ptr, ptr getelementptr inbounds nuw (%struct.darktable_t, ptr @darktable, i32 0, i32 9), align 8, !tbaa !132
  %20 = getelementptr inbounds nuw %struct.dt_develop_t, ptr %19, i32 0, i32 38
  %21 = load ptr, ptr %20, align 8, !tbaa !202
  %22 = getelementptr inbounds nuw %struct.dt_masks_form_gui_t, ptr %21, i32 0, i32 40
  store i32 0, ptr %22, align 4, !tbaa !210
  %23 = load ptr, ptr getelementptr inbounds nuw (%struct.darktable_t, ptr @darktable, i32 0, i32 9), align 8, !tbaa !132
  %24 = getelementptr inbounds nuw %struct.dt_develop_t, ptr %23, i32 0, i32 38
  %25 = load ptr, ptr %24, align 8, !tbaa !202
  %26 = getelementptr inbounds nuw %struct.dt_masks_form_gui_t, ptr %25, i32 0, i32 43
  store ptr null, ptr %26, align 8, !tbaa !211
  call void @llvm.lifetime.start.p0(i64 8, ptr %8) #11
  %27 = load ptr, ptr %7, align 8, !tbaa !6
  %28 = getelementptr inbounds nuw %struct.dt_iop_module_t, ptr %27, i32 0, i32 88
  %29 = load ptr, ptr %28, align 8, !tbaa !15
  store ptr %29, ptr %8, align 8, !tbaa !31
  %30 = load ptr, ptr %6, align 8, !tbaa !172
  %31 = getelementptr inbounds nuw %struct._GdkEventButton, ptr %30, i32 0, i32 8
  %32 = load i32, ptr %31, align 4, !tbaa !212
  %33 = icmp eq i32 %32, 1
  br i1 %33, label %34, label %130

34:                                               ; preds = %18
  %35 = load ptr, ptr %7, align 8, !tbaa !6
  call void @dt_iop_request_focus(ptr noundef %35)
  %36 = load ptr, ptr getelementptr inbounds nuw (%struct.darktable_t, ptr @darktable, i32 0, i32 14), align 8, !tbaa !39
  %37 = getelementptr inbounds nuw %struct.dt_gui_gtk_t, ptr %36, i32 0, i32 5
  %38 = load i32, ptr %37, align 8, !tbaa !72
  %39 = add nsw i32 %38, 1
  store i32 %39, ptr %37, align 8, !tbaa !72
  %40 = load ptr, ptr %7, align 8, !tbaa !6
  call void @dt_iop_color_picker_reset(ptr noundef %40, i32 noundef 0)
  call void @llvm.lifetime.start.p0(i64 8, ptr %9) #11
  %41 = load ptr, ptr getelementptr inbounds nuw (%struct.darktable_t, ptr @darktable, i32 0, i32 9), align 8, !tbaa !132
  %42 = load ptr, ptr %7, align 8, !tbaa !6
  %43 = getelementptr inbounds nuw %struct.dt_iop_module_t, ptr %42, i32 0, i32 86
  %44 = load ptr, ptr %43, align 8, !tbaa !77
  %45 = getelementptr inbounds nuw %struct.dt_develop_blend_params_t, ptr %44, i32 0, i32 6
  %46 = load i32, ptr %45, align 4, !tbaa !192
  %47 = call ptr @dt_masks_get_from_id(ptr noundef %41, i32 noundef %46)
  store ptr %47, ptr %9, align 8, !tbaa !193
  %48 = load ptr, ptr %9, align 8, !tbaa !193
  %49 = icmp ne ptr %48, null
  br i1 %49, label %50, label %90

50:                                               ; preds = %34
  %51 = load ptr, ptr %9, align 8, !tbaa !193
  %52 = getelementptr inbounds nuw %struct.dt_masks_form_t, ptr %51, i32 0, i32 1
  %53 = load i32, ptr %52, align 8, !tbaa !195
  %54 = and i32 %53, 4
  %55 = icmp ne i32 %54, 0
  br i1 %55, label %56, label %90

56:                                               ; preds = %50
  %57 = load ptr, ptr %9, align 8, !tbaa !193
  %58 = getelementptr inbounds nuw %struct.dt_masks_form_t, ptr %57, i32 0, i32 0
  %59 = load ptr, ptr %58, align 8, !tbaa !198
  %60 = icmp ne ptr %59, null
  br i1 %60, label %61, label %90

61:                                               ; preds = %56
  call void @llvm.lifetime.start.p0(i64 4, ptr %10) #11
  %62 = load ptr, ptr %6, align 8, !tbaa !172
  %63 = getelementptr inbounds nuw %struct._GdkEventButton, ptr %62, i32 0, i32 7
  %64 = load i32, ptr %63, align 8, !tbaa !216
  %65 = call i32 @dt_modifier_is(i32 noundef %64, i32 noundef 4)
  store i32 %65, ptr %10, align 4, !tbaa !80
  %66 = load ptr, ptr %8, align 8, !tbaa !31
  %67 = getelementptr inbounds nuw %struct.dt_iop_gui_blend_data_t, ptr %66, i32 0, i32 50
  %68 = load i32, ptr %67, align 8, !tbaa !199
  switch i32 %68, label %82 [
    i32 1, label %69
    i32 2, label %75
    i32 0, label %83
  ]

69:                                               ; preds = %61
  %70 = load i32, ptr %10, align 4, !tbaa !80
  %71 = icmp ne i32 %70, 0
  %72 = select i1 %71, i32 2, i32 0
  %73 = load ptr, ptr %8, align 8, !tbaa !31
  %74 = getelementptr inbounds nuw %struct.dt_iop_gui_blend_data_t, ptr %73, i32 0, i32 50
  store i32 %72, ptr %74, align 8, !tbaa !199
  br label %89

75:                                               ; preds = %61
  %76 = load i32, ptr %10, align 4, !tbaa !80
  %77 = icmp ne i32 %76, 0
  %78 = xor i1 %77, true
  %79 = select i1 %78, i32 1, i32 0
  %80 = load ptr, ptr %8, align 8, !tbaa !31
  %81 = getelementptr inbounds nuw %struct.dt_iop_gui_blend_data_t, ptr %80, i32 0, i32 50
  store i32 %79, ptr %81, align 8, !tbaa !199
  br label %89

82:                                               ; preds = %61
  br label %83

83:                                               ; preds = %61, %82
  %84 = load i32, ptr %10, align 4, !tbaa !80
  %85 = icmp ne i32 %84, 0
  %86 = select i1 %85, i32 2, i32 1
  %87 = load ptr, ptr %8, align 8, !tbaa !31
  %88 = getelementptr inbounds nuw %struct.dt_iop_gui_blend_data_t, ptr %87, i32 0, i32 50
  store i32 %86, ptr %88, align 8, !tbaa !199
  br label %89

89:                                               ; preds = %83, %75, %69
  call void @llvm.lifetime.end.p0(i64 4, ptr %10) #11
  br label %94

90:                                               ; preds = %56, %50, %34
  %91 = load ptr, ptr %8, align 8, !tbaa !31
  %92 = getelementptr inbounds nuw %struct.dt_iop_gui_blend_data_t, ptr %91, i32 0, i32 50
  store i32 0, ptr %92, align 8, !tbaa !199
  %93 = load ptr, ptr getelementptr inbounds nuw (%struct.darktable_t, ptr @darktable, i32 0, i32 12), align 8, !tbaa !217
  call void @dt_control_hinter_message(ptr noundef %93, ptr noundef @.str.107)
  br label %94

94:                                               ; preds = %90, %89
  %95 = load ptr, ptr %8, align 8, !tbaa !31
  %96 = getelementptr inbounds nuw %struct.dt_iop_gui_blend_data_t, ptr %95, i32 0, i32 47
  %97 = load ptr, ptr %96, align 8, !tbaa !200
  %98 = call i64 @gtk_toggle_button_get_type() #12
  %99 = call ptr @g_type_check_instance_cast(ptr noundef %97, i64 noundef %98)
  %100 = load ptr, ptr %8, align 8, !tbaa !31
  %101 = getelementptr inbounds nuw %struct.dt_iop_gui_blend_data_t, ptr %100, i32 0, i32 50
  %102 = load i32, ptr %101, align 8, !tbaa !199
  %103 = icmp ne i32 %102, 0
  %104 = zext i1 %103 to i32
  call void @gtk_toggle_button_set_active(ptr noundef %99, i32 noundef %104)
  %105 = load ptr, ptr %7, align 8, !tbaa !6
  %106 = load ptr, ptr %8, align 8, !tbaa !31
  %107 = getelementptr inbounds nuw %struct.dt_iop_gui_blend_data_t, ptr %106, i32 0, i32 50
  %108 = load i32, ptr %107, align 8, !tbaa !199
  call void @dt_masks_set_edit_mode(ptr noundef %105, i32 noundef %108)
  call void @llvm.lifetime.start.p0(i64 4, ptr %11) #11
  store i32 0, ptr %11, align 4, !tbaa !80
  br label %109

109:                                              ; preds = %122, %94
  %110 = load i32, ptr %11, align 4, !tbaa !80
  %111 = icmp slt i32 %110, 5
  br i1 %111, label %113, label %112

112:                                              ; preds = %109
  call void @llvm.lifetime.end.p0(i64 4, ptr %11) #11
  br label %125

113:                                              ; preds = %109
  %114 = load ptr, ptr %8, align 8, !tbaa !31
  %115 = getelementptr inbounds nuw %struct.dt_iop_gui_blend_data_t, ptr %114, i32 0, i32 45
  %116 = load i32, ptr %11, align 4, !tbaa !80
  %117 = sext i32 %116 to i64
  %118 = getelementptr inbounds [5 x ptr], ptr %115, i64 0, i64 %117
  %119 = load ptr, ptr %118, align 8, !tbaa !11
  %120 = call i64 @gtk_toggle_button_get_type() #12
  %121 = call ptr @g_type_check_instance_cast(ptr noundef %119, i64 noundef %120)
  call void @gtk_toggle_button_set_active(ptr noundef %121, i32 noundef 0)
  br label %122

122:                                              ; preds = %113
  %123 = load i32, ptr %11, align 4, !tbaa !80
  %124 = add nsw i32 %123, 1
  store i32 %124, ptr %11, align 4, !tbaa !80
  br label %109

125:                                              ; preds = %112
  %126 = load ptr, ptr getelementptr inbounds nuw (%struct.darktable_t, ptr @darktable, i32 0, i32 14), align 8, !tbaa !39
  %127 = getelementptr inbounds nuw %struct.dt_gui_gtk_t, ptr %126, i32 0, i32 5
  %128 = load i32, ptr %127, align 8, !tbaa !72
  %129 = add nsw i32 %128, -1
  store i32 %129, ptr %127, align 8, !tbaa !72
  store i32 1, ptr %4, align 4
  store i32 1, ptr %12, align 4
  call void @llvm.lifetime.end.p0(i64 8, ptr %9) #11
  br label %131

130:                                              ; preds = %18
  store i32 0, ptr %4, align 4
  store i32 1, ptr %12, align 4
  br label %131

131:                                              ; preds = %130, %125
  call void @llvm.lifetime.end.p0(i64 8, ptr %8) #11
  br label %132

132:                                              ; preds = %131, %17
  %133 = load i32, ptr %4, align 4
  ret i32 %133
}