; Function Attrs: nounwind uwtable
define internal range(i32 0, 2) i32 @_blendop_masks_show_and_edit(ptr readnone captures(none) %0, ptr noundef readonly captures(none) %1, ptr noundef %2) #0 {
  %4 = load ptr, ptr getelementptr inbounds nuw (i8, ptr @darktable, i64 104), align 8, !tbaa !33
  %5 = getelementptr inbounds nuw i8, ptr %4, i64 96
  %6 = load i32, ptr %5, align 8, !tbaa !66
  %.not = icmp eq i32 %6, 0
  br i1 %.not, label %7, label %74

7:                                                ; preds = %3
  %8 = load ptr, ptr getelementptr inbounds nuw (i8, ptr @darktable, i64 64), align 8, !tbaa !119
  %9 = getelementptr inbounds nuw i8, ptr %8, i64 2136
  %10 = load ptr, ptr %9, align 8, !tbaa !173
  %11 = getelementptr inbounds nuw i8, ptr %10, i64 172
  store i32 0, ptr %11, align 4, !tbaa !182
  %12 = getelementptr inbounds nuw i8, ptr %10, i64 192
  store ptr null, ptr %12, align 8, !tbaa !183
  %13 = getelementptr inbounds nuw i8, ptr %2, i64 776
  %14 = load ptr, ptr %13, align 8, !tbaa !6
  %15 = getelementptr inbounds nuw i8, ptr %1, i64 52
  %16 = load i32, ptr %15, align 4, !tbaa !184
  %17 = icmp eq i32 %16, 1
  br i1 %17, label %18, label %74

18:                                               ; preds = %7
  tail call void @dt_iop_request_focus(ptr noundef nonnull %2) #18
  %19 = load ptr, ptr getelementptr inbounds nuw (i8, ptr @darktable, i64 104), align 8, !tbaa !33
  %20 = getelementptr inbounds nuw i8, ptr %19, i64 96
  %21 = load i32, ptr %20, align 8, !tbaa !66
  %22 = add nsw i32 %21, 1
  store i32 %22, ptr %20, align 8, !tbaa !66
  tail call void @dt_iop_color_picker_reset(ptr noundef nonnull %2, i32 noundef 0) #18
  %23 = load ptr, ptr getelementptr inbounds nuw (i8, ptr @darktable, i64 64), align 8, !tbaa !119
  %24 = getelementptr inbounds nuw i8, ptr %2, i64 760
  %25 = load ptr, ptr %24, align 8, !tbaa !71
  %26 = getelementptr inbounds nuw i8, ptr %25, i64 24
  %27 = load i32, ptr %26, align 4, !tbaa !164
  %28 = tail call ptr @dt_masks_get_from_id(ptr noundef %23, i32 noundef %27) #18
  %.not27 = icmp eq ptr %28, null
  br i1 %.not27, label %51, label %29

29:                                               ; preds = %18
  %30 = getelementptr inbounds nuw i8, ptr %28, i64 8
  %31 = load i32, ptr %30, align 8, !tbaa !166
  %32 = and i32 %31, 4
  %.not28 = icmp eq i32 %32, 0
  br i1 %.not28, label %51, label %33

33:                                               ; preds = %29
  %34 = load ptr, ptr %28, align 8, !tbaa !169
  %.not29 = icmp eq ptr %34, null
  br i1 %.not29, label %51, label %35

35:                                               ; preds = %33
  %36 = getelementptr inbounds nuw i8, ptr %1, i64 48
  %37 = load i32, ptr %36, align 8, !tbaa !188
  %38 = tail call i32 @gtk_accelerator_get_default_mod_mask() #18
  %39 = load i32, ptr @dt_modifier_shortcuts, align 4, !tbaa !77
  %40 = or i32 %39, %37
  %41 = and i32 %40, %38
  %42 = icmp ne i32 %41, 4
  %43 = getelementptr inbounds nuw i8, ptr %14, i64 600
  %44 = load i32, ptr %43, align 8, !tbaa !170
  switch i32 %44, label %49 [
    i32 1, label %45
    i32 2, label %47
  ]

45:                                               ; preds = %35
  %46 = select i1 %42, i32 0, i32 2
  store i32 %46, ptr %43, align 8, !tbaa !170
  br label %54

47:                                               ; preds = %35
  %48 = zext i1 %42 to i32
  store i32 %48, ptr %43, align 8, !tbaa !170
  br label %54

49:                                               ; preds = %35
  %50 = select i1 %42, i32 1, i32 2
  store i32 %50, ptr %43, align 8, !tbaa !170
  br label %54

51:                                               ; preds = %33, %29, %18
  %52 = getelementptr inbounds nuw i8, ptr %14, i64 600
  store i32 0, ptr %52, align 8, !tbaa !170
  %53 = load ptr, ptr getelementptr inbounds nuw (i8, ptr @darktable, i64 88), align 8, !tbaa !189
  tail call void @dt_control_hinter_message(ptr noundef %53, ptr noundef nonnull @.str.107) #18
  br label %54

54:                                               ; preds = %45, %47, %49, %51
  %55 = getelementptr inbounds nuw i8, ptr %14, i64 576
  %56 = load ptr, ptr %55, align 8, !tbaa !171
  %57 = tail call i64 @gtk_toggle_button_get_type() #19
  %58 = tail call ptr @g_type_check_instance_cast(ptr noundef %56, i64 noundef %57) #18
  %59 = getelementptr inbounds nuw i8, ptr %14, i64 600
  %60 = load i32, ptr %59, align 8, !tbaa !170
  %61 = icmp ne i32 %60, 0
  %62 = zext i1 %61 to i32
  tail call void @gtk_toggle_button_set_active(ptr noundef %58, i32 noundef %62) #18
  %63 = load i32, ptr %59, align 8, !tbaa !170
  tail call void @dt_masks_set_edit_mode(ptr noundef nonnull %2, i32 noundef %63) #18
  %64 = getelementptr inbounds nuw i8, ptr %14, i64 512
  br label %70

65:                                               ; preds = %70
  %66 = load ptr, ptr getelementptr inbounds nuw (i8, ptr @darktable, i64 104), align 8, !tbaa !33
  %67 = getelementptr inbounds nuw i8, ptr %66, i64 96
  %68 = load i32, ptr %67, align 8, !tbaa !66
  %69 = add nsw i32 %68, -1
  store i32 %69, ptr %67, align 8, !tbaa !66
  br label %74

70:                                               ; preds = %54, %70
  %indvars.iv = phi i64 [ 0, %54 ], [ %indvars.iv.next, %70 ]
  %71 = getelementptr inbounds nuw [5 x ptr], ptr %64, i64 0, i64 %indvars.iv
  %72 = load ptr, ptr %71, align 8, !tbaa !179
  %73 = tail call ptr @g_type_check_instance_cast(ptr noundef %72, i64 noundef %57) #18
  tail call void @gtk_toggle_button_set_active(ptr noundef %73, i32 noundef 0) #18
  %indvars.iv.next = add nuw nsw i64 %indvars.iv, 1
  %exitcond.not = icmp eq i64 %indvars.iv.next, 5
  br i1 %exitcond.not, label %65, label %70

74:                                               ; preds = %65, %7, %3
  %.025 = phi i32 [ 0, %3 ], [ 1, %65 ], [ 0, %7 ]
  ret i32 %.025
}